target datalayout = "e-m:e-p270:32:32-p271:32:32-p272:64:64-i64:64-i128:128-f80:128-n8:16:32:64-S128"
target triple = "x86_64-pc-linux-gnu"

%struct.AVFormatContext = type { ptr, ptr, ptr, ptr, ptr, i32, i32, ptr, i32, ptr, i32, ptr, ptr, i64, i64, i64, i32, i32, i32, i64, i64, ptr, i32, i32, ptr, i32, i32, i32, i32, ptr, i64, i32, i32, %struct.AVIOInterruptCB, i32, i32, i32, i32, i64, i32, i32, i32, i32, i32, i32, i32, i32, i32, i32, i32, i32, i64, i32, i32, i32, i32, i32, ptr, ptr, ptr, ptr, i32, ptr, ptr, ptr, ptr, i32, ptr, ptr, i64, ptr, ptr, ptr, i64 }
%struct.AVIOInterruptCB = type { ptr, ptr }

@.str.91 = private unnamed_addr constant [54 x i8] c"Probe: %d, score: %d, dvhs_score: %d, fec_score: %d \0A\00", align 1

; Function Attrs: alwaysinline nounwind willreturn memory(none) uwtable
define internal zeroext i16 @av_bswap16(i16 noundef zeroext %0) #7 {
  %2 = alloca i16, align 2
  store i16 %0, ptr %2, align 2, !tbaa !207
  %3 = load i16, ptr %2, align 2, !tbaa !207
  %4 = zext i16 %3 to i32
  %5 = ashr i32 %4, 8
  %6 = load i16, ptr %2, align 2, !tbaa !207
  %7 = zext i16 %6 to i32
  %8 = shl i32 %7, 8
  %9 = or i32 %5, %8
  %10 = trunc i32 %9 to i16
  store i16 %10, ptr %2, align 2, !tbaa !207
  %11 = load i16, ptr %2, align 2, !tbaa !207
  ret i16 %11
}

; Function Attrs: inlinehint nounwind willreturn memory(none) uwtable
define internal i32 @mid_pred(i32 noundef %0, i32 noundef %1, i32 noundef %2) #11 {
  %4 = alloca i32, align 4
  %5 = alloca i32, align 4
  %6 = alloca i32, align 4
  store i32 %0, ptr %4, align 4, !tbaa !11
  store i32 %1, ptr %5, align 4, !tbaa !11
  store i32 %2, ptr %6, align 4, !tbaa !11
  %7 = load i32, ptr %4, align 4, !tbaa !11
  %8 = load i32, ptr %5, align 4, !tbaa !11
  %9 = icmp sgt i32 %7, %8
  br i1 %9, label %10, label %24

10:                                               ; preds = %3
  %11 = load i32, ptr %6, align 4, !tbaa !11
  %12 = load i32, ptr %5, align 4, !tbaa !11
  %13 = icmp sgt i32 %11, %12
  br i1 %13, label %14, label %23

14:                                               ; preds = %10
  %15 = load i32, ptr %6, align 4, !tbaa !11
  %16 = load i32, ptr %4, align 4, !tbaa !11
  %17 = icmp sgt i32 %15, %16
  br i1 %17, label %18, label %20

18:                                               ; preds = %14
  %19 = load i32, ptr %4, align 4, !tbaa !11
  store i32 %19, ptr %5, align 4, !tbaa !11
  br label %22

20:                                               ; preds = %14
  %21 = load i32, ptr %6, align 4, !tbaa !11
  store i32 %21, ptr %5, align 4, !tbaa !11
  br label %22

22:                                               ; preds = %20, %18
  br label %23

23:                                               ; preds = %22, %10
  br label %38

24:                                               ; preds = %3
  %25 = load i32, ptr %5, align 4, !tbaa !11
  %26 = load i32, ptr %6, align 4, !tbaa !11
  %27 = icmp sgt i32 %25, %26
  br i1 %27, label %28, label %37

28:                                               ; preds = %24
  %29 = load i32, ptr %6, align 4, !tbaa !11
  %30 = load i32, ptr %4, align 4, !tbaa !11
  %31 = icmp sgt i32 %29, %30
  br i1 %31, label %32, label %34

32:                                               ; preds = %28
  %33 = load i32, ptr %6, align 4, !tbaa !11
  store i32 %33, ptr %5, align 4, !tbaa !11
  br label %36

34:                                               ; preds = %28
  %35 = load i32, ptr %4, align 4, !tbaa !11
  store i32 %35, ptr %5, align 4, !tbaa !11
  br label %36

36:                                               ; preds = %34, %32
  br label %37

37:                                               ; preds = %36, %24
  br label %38

38:                                               ; preds = %37, %23
  %39 = load i32, ptr %5, align 4, !tbaa !11
  ret i32 %39
}

; Function Attrs: nounwind uwtable
define internal i32 @analyze(ptr noundef %0, i32 noundef %1, i32 noundef %2, i32 noundef %3) #0 {
  %5 = alloca ptr, align 8
  %6 = alloca i32, align 4
  %7 = alloca i32, align 4
  %8 = alloca i32, align 4
  %9 = alloca [204 x i32], align 16
  %10 = alloca i32, align 4
  %11 = alloca i32, align 4
  %12 = alloca i32, align 4
  %13 = alloca i32, align 4
  %14 = alloca i32, align 4
  %15 = alloca i32, align 4
  store ptr %0, ptr %5, align 8, !tbaa !16
  store i32 %1, ptr %6, align 4, !tbaa !11
  store i32 %2, ptr %7, align 4, !tbaa !11
  store i32 %3, ptr %8, align 4, !tbaa !11
  call void @llvm.lifetime.start.p0(i64 816, ptr %9) #12
  call void @llvm.lifetime.start.p0(i64 4, ptr %10) #12
  store i32 0, ptr %10, align 4, !tbaa !11
  call void @llvm.lifetime.start.p0(i64 4, ptr %11) #12
  call void @llvm.lifetime.start.p0(i64 4, ptr %12) #12
  store i32 0, ptr %12, align 4, !tbaa !11
  %16 = getelementptr inbounds [204 x i32], ptr %9, i64 0, i64 0
  %17 = load i32, ptr %7, align 4, !tbaa !11
  %18 = sext i32 %17 to i64
  %19 = mul i64 %18, 4
  call void @llvm.memset.p0.i64(ptr align 16 %16, i8 0, i64 %19, i1 false)
  store i32 0, ptr %11, align 4, !tbaa !11
  br label %20

20:                                               ; preds = %81, %4
  %21 = load i32, ptr %11, align 4, !tbaa !11
  %22 = load i32, ptr %6, align 4, !tbaa !11
  %23 = sub nsw i32 %22, 3
  %24 = icmp slt i32 %21, %23
  br i1 %24, label %25, label %84

25:                                               ; preds = %20
  %26 = load ptr, ptr %5, align 8, !tbaa !16
  %27 = load i32, ptr %11, align 4, !tbaa !11
  %28 = sext i32 %27 to i64
  %29 = getelementptr inbounds i8, ptr %26, i64 %28
  %30 = load i8, ptr %29, align 1, !tbaa !66
  %31 = zext i8 %30 to i32
  %32 = icmp eq i32 %31, 71
  br i1 %32, label %33, label %80

33:                                               ; preds = %25
  call void @llvm.lifetime.start.p0(i64 4, ptr %13) #12
  %34 = load ptr, ptr %5, align 8, !tbaa !16
  %35 = getelementptr inbounds i8, ptr %34, i64 1
  %36 = load i16, ptr %35, align 1, !tbaa !66
  %37 = call zeroext i16 @av_bswap16(i16 noundef zeroext %36) #14
  %38 = zext i16 %37 to i32
  %39 = and i32 %38, 8191
  store i32 %39, ptr %13, align 4, !tbaa !11
  call void @llvm.lifetime.start.p0(i64 4, ptr %14) #12
  %40 = load ptr, ptr %5, align 8, !tbaa !16
  %41 = load i32, ptr %11, align 4, !tbaa !11
  %42 = add nsw i32 %41, 3
  %43 = sext i32 %42 to i64
  %44 = getelementptr inbounds i8, ptr %40, i64 %43
  %45 = load i8, ptr %44, align 1, !tbaa !66
  %46 = zext i8 %45 to i32
  %47 = and i32 %46, 48
  store i32 %47, ptr %14, align 4, !tbaa !11
  %48 = load i32, ptr %8, align 4, !tbaa !11
  %49 = icmp ne i32 %48, 0
  br i1 %49, label %50, label %56

50:                                               ; preds = %33
  %51 = load i32, ptr %13, align 4, !tbaa !11
  %52 = icmp eq i32 %51, 8191
  br i1 %52, label %56, label %53

53:                                               ; preds = %50
  %54 = load i32, ptr %14, align 4, !tbaa !11
  %55 = icmp ne i32 %54, 0
  br i1 %55, label %56, label %79

56:                                               ; preds = %53, %50, %33
  call void @llvm.lifetime.start.p0(i64 4, ptr %15) #12
  %57 = load i32, ptr %11, align 4, !tbaa !11
  %58 = load i32, ptr %7, align 4, !tbaa !11
  %59 = srem i32 %57, %58
  store i32 %59, ptr %15, align 4, !tbaa !11
  %60 = load i32, ptr %15, align 4, !tbaa !11
  %61 = sext i32 %60 to i64
  %62 = getelementptr inbounds [204 x i32], ptr %9, i64 0, i64 %61
  %63 = load i32, ptr %62, align 4, !tbaa !11
  %64 = add nsw i32 %63, 1
  store i32 %64, ptr %62, align 4, !tbaa !11
  %65 = load i32, ptr %10, align 4, !tbaa !11
  %66 = add nsw i32 %65, 1
  store i32 %66, ptr %10, align 4, !tbaa !11
  %67 = load i32, ptr %15, align 4, !tbaa !11
  %68 = sext i32 %67 to i64
  %69 = getelementptr inbounds [204 x i32], ptr %9, i64 0, i64 %68
  %70 = load i32, ptr %69, align 4, !tbaa !11
  %71 = load i32, ptr %12, align 4, !tbaa !11
  %72 = icmp sgt i32 %70, %71
  br i1 %72, label %73, label %78

73:                                               ; preds = %56
  %74 = load i32, ptr %15, align 4, !tbaa !11
  %75 = sext i32 %74 to i64
  %76 = getelementptr inbounds [204 x i32], ptr %9, i64 0, i64 %75
  %77 = load i32, ptr %76, align 4, !tbaa !11
  store i32 %77, ptr %12, align 4, !tbaa !11
  br label %78

78:                                               ; preds = %73, %56
  call void @llvm.lifetime.end.p0(i64 4, ptr %15) #12
  br label %79

79:                                               ; preds = %78, %53
  call void @llvm.lifetime.end.p0(i64 4, ptr %14) #12
  call void @llvm.lifetime.end.p0(i64 4, ptr %13) #12
  br label %80

80:                                               ; preds = %79, %25
  br label %81

81:                                               ; preds = %80
  %82 = load i32, ptr %11, align 4, !tbaa !11
  %83 = add nsw i32 %82, 1
  store i32 %83, ptr %11, align 4, !tbaa !11
  br label %20, !llvm.loop !326

84:                                               ; preds = %20
  %85 = load i32, ptr %12, align 4, !tbaa !11
  %86 = load i32, ptr %10, align 4, !tbaa !11
  %87 = load i32, ptr %12, align 4, !tbaa !11
  %88 = mul nsw i32 10, %87
  %89 = sub nsw i32 %86, %88
  %90 = icmp sgt i32 %89, 0
  br i1 %90, label %91, label %96

91:                                               ; preds = %84
  %92 = load i32, ptr %10, align 4, !tbaa !11
  %93 = load i32, ptr %12, align 4, !tbaa !11
  %94 = mul nsw i32 10, %93
  %95 = sub nsw i32 %92, %94
  br label %97

96:                                               ; preds = %84
  br label %97

97:                                               ; preds = %96, %91
  %98 = phi i32 [ %95, %91 ], [ 0, %96 ]
  %99 = sdiv i32 %98, 10
  %100 = sub nsw i32 %85, %99
  call void @llvm.lifetime.end.p0(i64 4, ptr %12) #12
  call void @llvm.lifetime.end.p0(i64 4, ptr %11) #12
  call void @llvm.lifetime.end.p0(i64 4, ptr %10) #12
  call void @llvm.lifetime.end.p0(i64 816, ptr %9) #12
  ret i32 %100
}

; Function Attrs: nounwind uwtable
define internal i32 @get_packet_size(ptr noundef %0) #0 {
  %2 = alloca i32, align 4
  %3 = alloca ptr, align 8
  %4 = alloca i32, align 4
  %5 = alloca i32, align 4
  %6 = alloca i32, align 4
  %7 = alloca i32, align 4
  %8 = alloca i32, align 4
  %9 = alloca [8192 x i8], align 16
  %10 = alloca i32, align 4
  %11 = alloca i32, align 4
  %12 = alloca i32, align 4
  store ptr %0, ptr %3, align 8, !tbaa !4
  call void @llvm.lifetime.start.p0(i64 4, ptr %4) #12
  call void @llvm.lifetime.start.p0(i64 4, ptr %5) #12
  call void @llvm.lifetime.start.p0(i64 4, ptr %6) #12
  call void @llvm.lifetime.start.p0(i64 4, ptr %7) #12
  call void @llvm.lifetime.start.p0(i64 4, ptr %8) #12
  call void @llvm.lifetime.start.p0(i64 8192, ptr %9) #12
  call void @llvm.memset.p0.i64(ptr align 16 %9, i8 0, i64 8192, i1 false)
  call void @llvm.lifetime.start.p0(i64 4, ptr %10) #12
  store i32 0, ptr %10, align 4, !tbaa !11
  call void @llvm.lifetime.start.p0(i64 4, ptr %11) #12
  store i32 16, ptr %11, align 4, !tbaa !11
  br label %13

13:                                               ; preds = %80, %1
  %14 = load i32, ptr %10, align 4, !tbaa !11
  %15 = icmp slt i32 %14, 8192
  br i1 %15, label %16, label %20

16:                                               ; preds = %13
  %17 = load i32, ptr %11, align 4, !tbaa !11
  %18 = add nsw i32 %17, -1
  store i32 %18, ptr %11, align 4, !tbaa !11
  %19 = icmp ne i32 %17, 0
  br label %20

20:                                               ; preds = %16, %13
  %21 = phi i1 [ false, %13 ], [ %19, %16 ]
  br i1 %21, label %22, label %81

22:                                               ; preds = %20
  %23 = load ptr, ptr %3, align 8, !tbaa !4
  %24 = getelementptr inbounds nuw %struct.AVFormatContext, ptr %23, i32 0, i32 4
  %25 = load ptr, ptr %24, align 8, !tbaa !182
  %26 = getelementptr inbounds [8192 x i8], ptr %9, i64 0, i64 0
  %27 = load i32, ptr %10, align 4, !tbaa !11
  %28 = sext i32 %27 to i64
  %29 = getelementptr inbounds i8, ptr %26, i64 %28
  %30 = load i32, ptr %10, align 4, !tbaa !11
  %31 = sub nsw i32 8192, %30
  %32 = call i32 @avio_read_partial(ptr noundef %25, ptr noundef %29, i32 noundef %31)
  store i32 %32, ptr %8, align 4, !tbaa !11
  %33 = load i32, ptr %8, align 4, !tbaa !11
  %34 = icmp slt i32 %33, 0
  br i1 %34, label %35, label %36

35:                                               ; preds = %22
  store i32 -1094995529, ptr %2, align 4
  store i32 1, ptr %12, align 4
  br label %82

36:                                               ; preds = %22
  %37 = load i32, ptr %8, align 4, !tbaa !11
  %38 = load i32, ptr %10, align 4, !tbaa !11
  %39 = add nsw i32 %38, %37
  store i32 %39, ptr %10, align 4, !tbaa !11
  %40 = getelementptr inbounds [8192 x i8], ptr %9, i64 0, i64 0
  %41 = load i32, ptr %10, align 4, !tbaa !11
  %42 = call i32 @analyze(ptr noundef %40, i32 noundef %41, i32 noundef 188, i32 noundef 0)
  store i32 %42, ptr %4, align 4, !tbaa !11
  %43 = getelementptr inbounds [8192 x i8], ptr %9, i64 0, i64 0
  %44 = load i32, ptr %10, align 4, !tbaa !11
  %45 = call i32 @analyze(ptr noundef %43, i32 noundef %44, i32 noundef 192, i32 noundef 0)
  store i32 %45, ptr %6, align 4, !tbaa !11
  %46 = getelementptr inbounds [8192 x i8], ptr %9, i64 0, i64 0
  %47 = load i32, ptr %10, align 4, !tbaa !11
  %48 = call i32 @analyze(ptr noundef %46, i32 noundef %47, i32 noundef 204, i32 noundef 0)
  store i32 %48, ptr %5, align 4, !tbaa !11
  %49 = load ptr, ptr %3, align 8, !tbaa !4
  %50 = load i32, ptr %10, align 4, !tbaa !11
  %51 = load i32, ptr %4, align 4, !tbaa !11
  %52 = load i32, ptr %6, align 4, !tbaa !11
  %53 = load i32, ptr %5, align 4, !tbaa !11
  call void (ptr, i32, ptr, ...) @av_log(ptr noundef %49, i32 noundef 56, ptr noundef @.str.91, i32 noundef %50, i32 noundef %51, i32 noundef %52, i32 noundef %53)
  %54 = load i32, ptr %4, align 4, !tbaa !11
  %55 = load i32, ptr %5, align 4, !tbaa !11
  %56 = load i32, ptr %6, align 4, !tbaa !11
  %57 = call i32 @mid_pred(i32 noundef %54, i32 noundef %55, i32 noundef %56) #14
  store i32 %57, ptr %7, align 4, !tbaa !11
  %58 = load i32, ptr %10, align 4, !tbaa !11
  %59 = icmp slt i32 %58, 8192
  br i1 %59, label %60, label %63

60:                                               ; preds = %36
  %61 = load i32, ptr %7, align 4, !tbaa !11
  %62 = add nsw i32 %61, 5
  store i32 %62, ptr %7, align 4, !tbaa !11
  br label %63

63:                                               ; preds = %60, %36
  %64 = load i32, ptr %4, align 4, !tbaa !11
  %65 = load i32, ptr %7, align 4, !tbaa !11
  %66 = icmp sgt i32 %64, %65
  br i1 %66, label %67, label %68

67:                                               ; preds = %63
  store i32 188, ptr %2, align 4
  store i32 1, ptr %12, align 4
  br label %82

68:                                               ; preds = %63
  %69 = load i32, ptr %6, align 4, !tbaa !11
  %70 = load i32, ptr %7, align 4, !tbaa !11
  %71 = icmp sgt i32 %69, %70
  br i1 %71, label %72, label %73

72:                                               ; preds = %68
  store i32 192, ptr %2, align 4
  store i32 1, ptr %12, align 4
  br label %82

73:                                               ; preds = %68
  %74 = load i32, ptr %5, align 4, !tbaa !11
  %75 = load i32, ptr %7, align 4, !tbaa !11
  %76 = icmp sgt i32 %74, %75
  br i1 %76, label %77, label %78

77:                                               ; preds = %73
  store i32 204, ptr %2, align 4
  store i32 1, ptr %12, align 4
  br label %82

78:                                               ; preds = %73
  br label %79

79:                                               ; preds = %78
  br label %80

80:                                               ; preds = %79
  br label %13, !llvm.loop !327

81:                                               ; preds = %20
  store i32 -1094995529, ptr %2, align 4
  store i32 1, ptr %12, align 4
  br label %82

82:                                               ; preds = %81, %77, %72, %67, %35
  call void @llvm.lifetime.end.p0(i64 4, ptr %11) #12
  call void @llvm.lifetime.end.p0(i64 4, ptr %10) #12
  call void @llvm.lifetime.end.p0(i64 8192, ptr %9) #12
  call void @llvm.lifetime.end.p0(i64 4, ptr %8) #12
  call void @llvm.lifetime.end.p0(i64 4, ptr %7) #12
  call void @llvm.lifetime.end.p0(i64 4, ptr %6) #12
  call void @llvm.lifetime.end.p0(i64 4, ptr %5) #12
  call void @llvm.lifetime.end.p0(i64 4, ptr %4) #12
  %83 = load i32, ptr %2, align 4
  ret i32 %83
}