; Function Attrs: nounwind uwtable
define internal fastcc range(i32 -1094995529, 205) i32 @get_packet_size(ptr noundef %0) unnamed_addr #0 {
  %2 = alloca [204 x i32], align 16
  %3 = alloca [204 x i32], align 16
  %4 = alloca [204 x i32], align 16
  %5 = alloca [8192 x i8], align 16
  call void @llvm.lifetime.start.p0(i64 8192, ptr nonnull %5) #12
  call void @llvm.memset.p0.i64(ptr noundef nonnull align 16 dereferenceable(8192) %5, i8 0, i64 8192, i1 false)
  %6 = getelementptr inbounds nuw i8, ptr %0, i64 32
  br label %7

7:                                                ; preds = %84, %1
  %.027 = phi i32 [ 0, %1 ], [ %19, %84 ]
  %.0 = phi i32 [ 16, %1 ], [ %10, %84 ]
  %8 = icmp slt i32 %.027, 8192
  br i1 %8, label %9, label %.critedge

9:                                                ; preds = %7
  %10 = add nsw i32 %.0, -1
  %.not = icmp eq i32 %.0, 0
  br i1 %.not, label %.critedge, label %11

11:                                               ; preds = %9
  %12 = load ptr, ptr %6, align 8, !tbaa !189
  %13 = zext nneg i32 %.027 to i64
  %14 = getelementptr inbounds nuw i8, ptr %5, i64 %13
  %15 = sub nuw nsw i32 8192, %.027
  %16 = call i32 @avio_read_partial(ptr noundef %12, ptr noundef nonnull %14, i32 noundef %15) #12
  %17 = icmp slt i32 %16, 0
  br i1 %17, label %.critedge, label %18

18:                                               ; preds = %11
  %19 = add nuw nsw i32 %16, %.027
  call void @llvm.lifetime.start.p0(i64 816, ptr nonnull %4) #12
  call void @llvm.memset.p0.i64(ptr noundef nonnull align 16 dereferenceable(752) %4, i8 0, i64 752, i1 false)
  %20 = icmp sgt i32 %19, 3
  br i1 %20, label %.lr.ph.i, label %analyze.exit

.lr.ph.i:                                         ; preds = %18
  %21 = add nsw i32 %19, -3
  %wide.trip.count41.i = zext nneg i32 %21 to i64
  br label %.lr.ph.split.us.i

.lr.ph.split.us.i:                                ; preds = %33, %.lr.ph.i
  %indvars.iv38.i = phi i64 [ %indvars.iv.next39.i, %33 ], [ 0, %.lr.ph.i ]
  %.033.us.i = phi i32 [ %.2.us.i, %33 ], [ 0, %.lr.ph.i ]
  %.02731.us.i = phi i32 [ %.3.us.i, %33 ], [ 0, %.lr.ph.i ]
  %22 = getelementptr inbounds nuw i8, ptr %5, i64 %indvars.iv38.i
  %23 = load i8, ptr %22, align 1, !tbaa !9
  %24 = icmp eq i8 %23, 71
  br i1 %24, label %25, label %33

25:                                               ; preds = %.lr.ph.split.us.i
  %26 = trunc nuw nsw i64 %indvars.iv38.i to i32
  %27 = urem i32 %26, 188
  %28 = zext nneg i32 %27 to i64
  %29 = getelementptr inbounds nuw [204 x i32], ptr %4, i64 0, i64 %28
  %30 = load i32, ptr %29, align 4, !tbaa !107
  %31 = add nsw i32 %30, 1
  store i32 %31, ptr %29, align 4, !tbaa !107
  %32 = add nsw i32 %.033.us.i, 1
  %.not.us.i = icmp slt i32 %30, %.02731.us.i
  %spec.select.us.i = select i1 %.not.us.i, i32 %.02731.us.i, i32 %31
  br label %33

33:                                               ; preds = %25, %.lr.ph.split.us.i
  %.3.us.i = phi i32 [ %.02731.us.i, %.lr.ph.split.us.i ], [ %spec.select.us.i, %25 ]
  %.2.us.i = phi i32 [ %.033.us.i, %.lr.ph.split.us.i ], [ %32, %25 ]
  %indvars.iv.next39.i = add nuw nsw i64 %indvars.iv38.i, 1
  %exitcond42.not.i = icmp eq i64 %indvars.iv.next39.i, %wide.trip.count41.i
  br i1 %exitcond42.not.i, label %analyze.exit, label %.lr.ph.split.us.i, !llvm.loop !186

analyze.exit:                                     ; preds = %33, %18
  %.027.lcssa.i = phi i32 [ 0, %18 ], [ %.3.us.i, %33 ]
  %.0.lcssa.i = phi i32 [ 0, %18 ], [ %.2.us.i, %33 ]
  %.neg.i = mul i32 %.027.lcssa.i, -10
  %34 = add i32 %.0.lcssa.i, %.neg.i
  %35 = call i32 @llvm.smax.i32(i32 %34, i32 0)
  %36 = udiv i32 %35, 10
  %37 = sub nsw i32 %.027.lcssa.i, %36
  call void @llvm.lifetime.end.p0(i64 816, ptr nonnull %4) #12
  call void @llvm.lifetime.start.p0(i64 816, ptr nonnull %3) #12
  call void @llvm.memset.p0.i64(ptr noundef nonnull align 16 dereferenceable(768) %3, i8 0, i64 768, i1 false)
  br i1 %20, label %.lr.ph.i34, label %analyze.exit46

.lr.ph.i34:                                       ; preds = %analyze.exit
  %38 = add nsw i32 %19, -3
  %wide.trip.count41.i35 = zext nneg i32 %38 to i64
  br label %.lr.ph.split.us.i36

.lr.ph.split.us.i36:                              ; preds = %50, %.lr.ph.i34
  %indvars.iv38.i37 = phi i64 [ %indvars.iv.next39.i42, %50 ], [ 0, %.lr.ph.i34 ]
  %.033.us.i38 = phi i32 [ %.2.us.i41, %50 ], [ 0, %.lr.ph.i34 ]
  %.02731.us.i39 = phi i32 [ %.3.us.i40, %50 ], [ 0, %.lr.ph.i34 ]
  %39 = getelementptr inbounds nuw i8, ptr %5, i64 %indvars.iv38.i37
  %40 = load i8, ptr %39, align 1, !tbaa !9
  %41 = icmp eq i8 %40, 71
  br i1 %41, label %42, label %50

42:                                               ; preds = %.lr.ph.split.us.i36
  %43 = trunc nuw nsw i64 %indvars.iv38.i37 to i32
  %44 = urem i32 %43, 192
  %45 = zext nneg i32 %44 to i64
  %46 = getelementptr inbounds nuw [204 x i32], ptr %3, i64 0, i64 %45
  %47 = load i32, ptr %46, align 4, !tbaa !107
  %48 = add nsw i32 %47, 1
  store i32 %48, ptr %46, align 4, !tbaa !107
  %49 = add nsw i32 %.033.us.i38, 1
  %.not.us.i44 = icmp slt i32 %47, %.02731.us.i39
  %spec.select.us.i45 = select i1 %.not.us.i44, i32 %.02731.us.i39, i32 %48
  br label %50

50:                                               ; preds = %42, %.lr.ph.split.us.i36
  %.3.us.i40 = phi i32 [ %.02731.us.i39, %.lr.ph.split.us.i36 ], [ %spec.select.us.i45, %42 ]
  %.2.us.i41 = phi i32 [ %.033.us.i38, %.lr.ph.split.us.i36 ], [ %49, %42 ]
  %indvars.iv.next39.i42 = add nuw nsw i64 %indvars.iv38.i37, 1
  %exitcond42.not.i43 = icmp eq i64 %indvars.iv.next39.i42, %wide.trip.count41.i35
  br i1 %exitcond42.not.i43, label %analyze.exit46, label %.lr.ph.split.us.i36, !llvm.loop !186

analyze.exit46:                                   ; preds = %50, %analyze.exit
  %.027.lcssa.i31 = phi i32 [ 0, %analyze.exit ], [ %.3.us.i40, %50 ]
  %.0.lcssa.i32 = phi i32 [ 0, %analyze.exit ], [ %.2.us.i41, %50 ]
  %.neg.i33 = mul i32 %.027.lcssa.i31, -10
  %51 = add i32 %.0.lcssa.i32, %.neg.i33
  %52 = call i32 @llvm.smax.i32(i32 %51, i32 0)
  %53 = udiv i32 %52, 10
  %54 = sub nsw i32 %.027.lcssa.i31, %53
  call void @llvm.lifetime.end.p0(i64 816, ptr nonnull %3) #12
  call void @llvm.lifetime.start.p0(i64 816, ptr nonnull %2) #12
  call void @llvm.memset.p0.i64(ptr noundef nonnull align 16 dereferenceable(816) %2, i8 0, i64 816, i1 false)
  br i1 %20, label %.lr.ph.i50, label %analyze.exit62

.lr.ph.i50:                                       ; preds = %analyze.exit46
  %55 = add nsw i32 %19, -3
  %wide.trip.count41.i51 = zext nneg i32 %55 to i64
  br label %.lr.ph.split.us.i52

.lr.ph.split.us.i52:                              ; preds = %67, %.lr.ph.i50
  %indvars.iv38.i53 = phi i64 [ %indvars.iv.next39.i58, %67 ], [ 0, %.lr.ph.i50 ]
  %.033.us.i54 = phi i32 [ %.2.us.i57, %67 ], [ 0, %.lr.ph.i50 ]
  %.02731.us.i55 = phi i32 [ %.3.us.i56, %67 ], [ 0, %.lr.ph.i50 ]
  %56 = getelementptr inbounds nuw i8, ptr %5, i64 %indvars.iv38.i53
  %57 = load i8, ptr %56, align 1, !tbaa !9
  %58 = icmp eq i8 %57, 71
  br i1 %58, label %59, label %67

59:                                               ; preds = %.lr.ph.split.us.i52
  %60 = trunc nuw nsw i64 %indvars.iv38.i53 to i32
  %61 = urem i32 %60, 204
  %62 = zext nneg i32 %61 to i64
  %63 = getelementptr inbounds nuw [204 x i32], ptr %2, i64 0, i64 %62
  %64 = load i32, ptr %63, align 4, !tbaa !107
  %65 = add nsw i32 %64, 1
  store i32 %65, ptr %63, align 4, !tbaa !107
  %66 = add nsw i32 %.033.us.i54, 1
  %.not.us.i60 = icmp slt i32 %64, %.02731.us.i55
  %spec.select.us.i61 = select i1 %.not.us.i60, i32 %.02731.us.i55, i32 %65
  br label %67

67:                                               ; preds = %59, %.lr.ph.split.us.i52
  %.3.us.i56 = phi i32 [ %.02731.us.i55, %.lr.ph.split.us.i52 ], [ %spec.select.us.i61, %59 ]
  %.2.us.i57 = phi i32 [ %.033.us.i54, %.lr.ph.split.us.i52 ], [ %66, %59 ]
  %indvars.iv.next39.i58 = add nuw nsw i64 %indvars.iv38.i53, 1
  %exitcond42.not.i59 = icmp eq i64 %indvars.iv.next39.i58, %wide.trip.count41.i51
  br i1 %exitcond42.not.i59, label %analyze.exit62, label %.lr.ph.split.us.i52, !llvm.loop !186

analyze.exit62:                                   ; preds = %67, %analyze.exit46
  %.027.lcssa.i47 = phi i32 [ 0, %analyze.exit46 ], [ %.3.us.i56, %67 ]
  %.0.lcssa.i48 = phi i32 [ 0, %analyze.exit46 ], [ %.2.us.i57, %67 ]
  %.neg.i49 = mul i32 %.027.lcssa.i47, -10
  %68 = add i32 %.0.lcssa.i48, %.neg.i49
  %69 = call i32 @llvm.smax.i32(i32 %68, i32 0)
  %70 = udiv i32 %69, 10
  %71 = sub nsw i32 %.027.lcssa.i47, %70
  call void @llvm.lifetime.end.p0(i64 816, ptr nonnull %2) #12
  call void (ptr, i32, ptr, ...) @av_log(ptr noundef %0, i32 noundef 56, ptr noundef nonnull @.str.91, i32 noundef %19, i32 noundef %37, i32 noundef %54, i32 noundef %71) #12
  %72 = icmp sgt i32 %37, %71
  br i1 %72, label %73, label %76

73:                                               ; preds = %analyze.exit62
  %74 = icmp sgt i32 %54, %71
  br i1 %74, label %75, label %mid_pred.exit

75:                                               ; preds = %73
  %..i = call i32 @llvm.smin.i32(i32 range(i32 -214748364, -2147483648) %54, i32 range(i32 -214748364, -2147483648) %37)
  br label %mid_pred.exit

76:                                               ; preds = %analyze.exit62
  %77 = icmp sgt i32 %71, %54
  br i1 %77, label %78, label %mid_pred.exit

78:                                               ; preds = %76
  %.20.i = call i32 @llvm.smax.i32(i32 range(i32 -214748364, -2147483648) %54, i32 range(i32 -214748364, -2147483648) %37)
  br label %mid_pred.exit

mid_pred.exit:                                    ; preds = %73, %75, %76, %78
  %.0.i = phi i32 [ %71, %73 ], [ %71, %76 ], [ %..i, %75 ], [ %.20.i, %78 ]
  %79 = icmp slt i32 %19, 8192
  %80 = add nsw i32 %.0.i, 5
  %spec.select = select i1 %79, i32 %80, i32 %.0.i
  %81 = icmp sgt i32 %37, %spec.select
  br i1 %81, label %.critedge, label %82

82:                                               ; preds = %mid_pred.exit
  %83 = icmp sgt i32 %54, %spec.select
  br i1 %83, label %.critedge, label %84

84:                                               ; preds = %82
  %85 = icmp sgt i32 %71, %spec.select
  br i1 %85, label %.critedge, label %7, !llvm.loop !284

.critedge:                                        ; preds = %9, %7, %84, %82, %mid_pred.exit, %11
  %.028 = phi i32 [ -1094995529, %11 ], [ 188, %mid_pred.exit ], [ 192, %82 ], [ 204, %84 ], [ -1094995529, %7 ], [ -1094995529, %9 ]
  call void @llvm.lifetime.end.p0(i64 8192, ptr nonnull %5) #12
  ret i32 %.028
}